; Function Attrs: nofree norecurse nosync nounwind memory(argmem: readwrite) uwtable
define void @stb_compress_bc5_block(ptr noundef writeonly captures(none) %0, ptr noundef readonly captures(none) %1) local_unnamed_addr #5 {
  %3 = load i8, ptr %1, align 1, !tbaa !3
  %4 = zext i8 %3 to i32
  br label %5

5:                                                ; preds = %5, %2
  %indvars.iv.i = phi i64 [ 1, %2 ], [ %indvars.iv.next.i, %5 ]
  %.06586.i = phi i32 [ %4, %2 ], [ %.166.i, %5 ]
  %.06785.i = phi i32 [ %4, %2 ], [ %.168.i, %5 ]
  %6 = shl nuw nsw i64 %indvars.iv.i, 1
  %7 = getelementptr inbounds nuw i8, ptr %1, i64 %6
  %8 = load i8, ptr %7, align 1, !tbaa !3
  %9 = zext i8 %8 to i32
  %10 = icmp samesign ugt i32 %.06785.i, %9
  %spec.select.i = tail call i32 @llvm.smax.i32(i32 %.06586.i, i32 %9)
  %.168.i = tail call i32 @llvm.umin.i32(i32 %.06785.i, i32 %9)
  %.166.i = select i1 %10, i32 %.06586.i, i32 %spec.select.i
  %indvars.iv.next.i = add nuw nsw i64 %indvars.iv.i, 1
  %exitcond.not.i = icmp eq i64 %indvars.iv.next.i, 16
  br i1 %exitcond.not.i, label %11, label %5, !llvm.loop !26

11:                                               ; preds = %5
  %12 = trunc nuw i32 %.166.i to i8
  store i8 %12, ptr %0, align 1, !tbaa !3
  %13 = trunc nuw i32 %.168.i to i8
  %14 = getelementptr inbounds nuw i8, ptr %0, i64 1
  store i8 %13, ptr %14, align 1, !tbaa !3
  %15 = getelementptr inbounds nuw i8, ptr %0, i64 2
  %16 = sub nsw i32 %.166.i, %.168.i
  %17 = shl nsw i32 %16, 2
  %18 = shl nsw i32 %16, 1
  %19 = icmp slt i32 %16, 8
  %20 = add nsw i32 %16, -1
  %21 = lshr i32 %16, 1
  %22 = add nuw nsw i32 %21, 2
  %23 = select i1 %19, i32 %20, i32 %22
  br label %24

24:                                               ; preds = %48, %11
  %indvars.iv93.i = phi i64 [ 0, %11 ], [ %indvars.iv.next94.i, %48 ]
  %.091.i = phi ptr [ %15, %11 ], [ %.1.i, %48 ]
  %.06989.i = phi i32 [ 0, %11 ], [ %.170.i, %48 ]
  %.07188.i = phi i32 [ 0, %11 ], [ %.172.i, %48 ]
  %25 = shl nuw nsw i64 %indvars.iv93.i, 1
  %26 = getelementptr inbounds nuw i8, ptr %1, i64 %25
  %27 = load i8, ptr %26, align 1, !tbaa !3
  %28 = zext i8 %27 to i32
  %reass.add.i = sub nsw i32 %28, %.168.i
  %reass.mul.i = mul nsw i32 %reass.add.i, 7
  %29 = add i32 %reass.mul.i, %23
  %.not.not.i = icmp slt i32 %29, %17
  %.neg80.i = select i1 %.not.not.i, i32 0, i32 4
  %30 = select i1 %.not.not.i, i32 0, i32 %17
  %31 = sub nsw i32 %29, %30
  %.not.not79.i = icmp slt i32 %31, %18
  %.neg81.i = select i1 %.not.not79.i, i32 0, i32 6
  %.neg82.i = add nuw nsw i32 %.neg81.i, %.neg80.i
  %32 = select i1 %.not.not79.i, i32 0, i32 %18
  %33 = sub nsw i32 %31, %32
  %34 = icmp sge i32 %33, %16
  %.neg83.i = sext i1 %34 to i32
  %.neg84.i = add nsw i32 %.neg82.i, %.neg83.i
  %35 = and i32 %.neg84.i, 7
  %36 = icmp samesign ult i32 %35, 2
  %37 = zext i1 %36 to i32
  %38 = xor i32 %35, %37
  %39 = shl i32 %38, %.07188.i
  %40 = or i32 %39, %.06989.i
  %41 = add nsw i32 %.07188.i, 3
  %42 = icmp sgt i32 %.07188.i, 4
  br i1 %42, label %43, label %48

43:                                               ; preds = %24
  %44 = trunc i32 %40 to i8
  %45 = getelementptr inbounds nuw i8, ptr %.091.i, i64 1
  store i8 %44, ptr %.091.i, align 1, !tbaa !3
  %46 = ashr i32 %40, 8
  %47 = add nsw i32 %.07188.i, -5
  br label %48

48:                                               ; preds = %43, %24
  %.172.i = phi i32 [ %47, %43 ], [ %41, %24 ]
  %.170.i = phi i32 [ %46, %43 ], [ %40, %24 ]
  %.1.i = phi ptr [ %45, %43 ], [ %.091.i, %24 ]
  %indvars.iv.next94.i = add nuw nsw i64 %indvars.iv93.i, 1
  %exitcond96.not.i = icmp eq i64 %indvars.iv.next94.i, 16
  br i1 %exitcond96.not.i, label %stb__CompressAlphaBlock.exit, label %24, !llvm.loop !27

stb__CompressAlphaBlock.exit:                     ; preds = %48
  %49 = getelementptr inbounds nuw i8, ptr %1, i64 1
  %50 = load i8, ptr %49, align 1, !tbaa !3
  %51 = zext i8 %50 to i32
  br label %52

52:                                               ; preds = %52, %stb__CompressAlphaBlock.exit
  %indvars.iv.i4 = phi i64 [ 1, %stb__CompressAlphaBlock.exit ], [ %indvars.iv.next.i10, %52 ]
  %.06586.i5 = phi i32 [ %51, %stb__CompressAlphaBlock.exit ], [ %.166.i9, %52 ]
  %.06785.i6 = phi i32 [ %51, %stb__CompressAlphaBlock.exit ], [ %.168.i8, %52 ]
  %53 = shl nuw nsw i64 %indvars.iv.i4, 1
  %54 = getelementptr inbounds nuw i8, ptr %49, i64 %53
  %55 = load i8, ptr %54, align 1, !tbaa !3
  %56 = zext i8 %55 to i32
  %57 = icmp samesign ugt i32 %.06785.i6, %56
  %spec.select.i7 = tail call i32 @llvm.smax.i32(i32 %.06586.i5, i32 %56)
  %.168.i8 = tail call i32 @llvm.umin.i32(i32 %.06785.i6, i32 %56)
  %.166.i9 = select i1 %57, i32 %.06586.i5, i32 %spec.select.i7
  %indvars.iv.next.i10 = add nuw nsw i64 %indvars.iv.i4, 1
  %exitcond.not.i11 = icmp eq i64 %indvars.iv.next.i10, 16
  br i1 %exitcond.not.i11, label %58, label %52, !llvm.loop !26

58:                                               ; preds = %52
  %59 = getelementptr inbounds nuw i8, ptr %0, i64 8
  %60 = trunc nuw i32 %.166.i9 to i8
  store i8 %60, ptr %59, align 1, !tbaa !3
  %61 = trunc nuw i32 %.168.i8 to i8
  %62 = getelementptr inbounds nuw i8, ptr %0, i64 9
  store i8 %61, ptr %62, align 1, !tbaa !3
  %63 = getelementptr inbounds nuw i8, ptr %0, i64 10
  %64 = sub nsw i32 %.166.i9, %.168.i8
  %65 = shl nsw i32 %64, 2
  %66 = shl nsw i32 %64, 1
  %67 = icmp slt i32 %64, 8
  %68 = add nsw i32 %64, -1
  %69 = lshr i32 %64, 1
  %70 = add nuw nsw i32 %69, 2
  %71 = select i1 %67, i32 %68, i32 %70
  br label %72

72:                                               ; preds = %96, %58
  %indvars.iv93.i12 = phi i64 [ 0, %58 ], [ %indvars.iv.next94.i28, %96 ]
  %.091.i13 = phi ptr [ %63, %58 ], [ %.1.i27, %96 ]
  %.06989.i14 = phi i32 [ 0, %58 ], [ %.170.i26, %96 ]
  %.07188.i15 = phi i32 [ 0, %58 ], [ %.172.i25, %96 ]
  %73 = shl nuw nsw i64 %indvars.iv93.i12, 1
  %74 = getelementptr inbounds nuw i8, ptr %49, i64 %73
  %75 = load i8, ptr %74, align 1, !tbaa !3
  %76 = zext i8 %75 to i32
  %reass.add.i16 = sub nsw i32 %76, %.168.i8
  %reass.mul.i17 = mul nsw i32 %reass.add.i16, 7
  %77 = add i32 %reass.mul.i17, %71
  %.not.not.i18 = icmp slt i32 %77, %65
  %.neg80.i19 = select i1 %.not.not.i18, i32 0, i32 4
  %78 = select i1 %.not.not.i18, i32 0, i32 %65
  %79 = sub nsw i32 %77, %78
  %.not.not79.i20 = icmp slt i32 %79, %66
  %.neg81.i21 = select i1 %.not.not79.i20, i32 0, i32 6
  %.neg82.i22 = add nuw nsw i32 %.neg81.i21, %.neg80.i19
  %80 = select i1 %.not.not79.i20, i32 0, i32 %66
  %81 = sub nsw i32 %79, %80
  %82 = icmp sge i32 %81, %64
  %.neg83.i23 = sext i1 %82 to i32
  %.neg84.i24 = add nsw i32 %.neg82.i22, %.neg83.i23
  %83 = and i32 %.neg84.i24, 7
  %84 = icmp samesign ult i32 %83, 2
  %85 = zext i1 %84 to i32
  %86 = xor i32 %83, %85
  %87 = shl i32 %86, %.07188.i15
  %88 = or i32 %87, %.06989.i14
  %89 = add nsw i32 %.07188.i15, 3
  %90 = icmp sgt i32 %.07188.i15, 4
  br i1 %90, label %91, label %96

91:                                               ; preds = %72
  %92 = trunc i32 %88 to i8
  %93 = getelementptr inbounds nuw i8, ptr %.091.i13, i64 1
  store i8 %92, ptr %.091.i13, align 1, !tbaa !3
  %94 = ashr i32 %88, 8
  %95 = add nsw i32 %.07188.i15, -5
  br label %96

96:                                               ; preds = %91, %72
  %.172.i25 = phi i32 [ %95, %91 ], [ %89, %72 ]
  %.170.i26 = phi i32 [ %94, %91 ], [ %88, %72 ]
  %.1.i27 = phi ptr [ %93, %91 ], [ %.091.i13, %72 ]
  %indvars.iv.next94.i28 = add nuw nsw i64 %indvars.iv93.i12, 1
  %exitcond96.not.i29 = icmp eq i64 %indvars.iv.next94.i28, 16
  br i1 %exitcond96.not.i29, label %stb__CompressAlphaBlock.exit30, label %72, !llvm.loop !27

stb__CompressAlphaBlock.exit30:                   ; preds = %96
  ret void
}